; Function Attrs: mustprogress uwtable
define noundef ptr @_ZN9grpc_core23XdsOverrideHostLbConfig10JsonLoaderERKNS_8JsonArgsE(ptr noundef nonnull readnone align 8 captures(none) dereferenceable(8) %0) local_unnamed_addr #3 align 2 personality ptr @__gxx_personality_v0 {
  %2 = load atomic i8, ptr @_ZGVZN9grpc_core23XdsOverrideHostLbConfig10JsonLoaderERKNS_8JsonArgsEE11kJsonLoader acquire, align 8
  %3 = icmp eq i8 %2, 0
  br i1 %3, label %4, label %11, !prof !15

4:                                                ; preds = %1
  %5 = tail call i32 @__cxa_guard_acquire(ptr nonnull @_ZGVZN9grpc_core23XdsOverrideHostLbConfig10JsonLoaderERKNS_8JsonArgsEE11kJsonLoader) #40
  %.not = icmp eq i32 %5, 0
  br i1 %.not, label %11, label %6

6:                                                ; preds = %4
  %7 = invoke noalias noundef nonnull dereferenceable(40) ptr @_Znwm(i64 noundef 40) #39
          to label %8 unwind label %13

8:                                                ; preds = %6
  store ptr getelementptr inbounds nuw inrange(-16, 8) (i8, ptr @_ZTVN9grpc_core11json_detail24FinishedJsonObjectLoaderINS_23XdsOverrideHostLbConfigELm1EvEE, i64 16), ptr %7, align 8, !tbaa !6
  %9 = getelementptr inbounds nuw i8, ptr %7, i64 8
  store ptr @_ZN9grpc_core19NoDestructSingletonINS_11json_detail10AutoLoaderINSt7__cxx1112basic_stringIcSt11char_traitsIcESaIcEEEEEE6value_E, ptr %9, align 8
  %.sroa.5.0..sroa_idx = getelementptr inbounds nuw i8, ptr %7, i64 16
  store i16 16, ptr %.sroa.5.0..sroa_idx, align 8
  %.sroa.6.0..sroa_idx = getelementptr inbounds nuw i8, ptr %7, i64 18
  store i8 0, ptr %.sroa.6.0..sroa_idx, align 2
  %.sroa.72.0..sroa_idx = getelementptr inbounds nuw i8, ptr %7, i64 24
  store ptr @.str, ptr %.sroa.72.0..sroa_idx, align 8
  %.sroa.8.0..sroa_idx = getelementptr inbounds nuw i8, ptr %7, i64 32
  store ptr null, ptr %.sroa.8.0..sroa_idx, align 8, !tbaa !16
  store ptr %7, ptr @_ZZN9grpc_core23XdsOverrideHostLbConfig10JsonLoaderERKNS_8JsonArgsEE11kJsonLoader, align 8, !tbaa !17
  %10 = tail call ptr @llvm.invariant.start.p0(i64 8, ptr nonnull @_ZZN9grpc_core23XdsOverrideHostLbConfig10JsonLoaderERKNS_8JsonArgsEE11kJsonLoader)
  tail call void @__cxa_guard_release(ptr nonnull @_ZGVZN9grpc_core23XdsOverrideHostLbConfig10JsonLoaderERKNS_8JsonArgsEE11kJsonLoader) #40
  br label %11

11:                                               ; preds = %8, %4, %1
  %12 = load ptr, ptr @_ZZN9grpc_core23XdsOverrideHostLbConfig10JsonLoaderERKNS_8JsonArgsEE11kJsonLoader, align 8, !tbaa !17
  ret ptr %12

13:                                               ; preds = %6
  %14 = landingpad { ptr, i32 }
          cleanup
  tail call void @__cxa_guard_abort(ptr nonnull @_ZGVZN9grpc_core23XdsOverrideHostLbConfig10JsonLoaderERKNS_8JsonArgsEE11kJsonLoader) #40
  resume { ptr, i32 } %14
}